target datalayout = "e-m:e-p270:32:32-p271:32:32-p272:64:64-i64:64-i128:128-f80:128-n8:16:32:64-S128"
target triple = "x86_64-pc-linux-gnu"

%struct._object = type { %union.anon, ptr }
%union.anon = type { i64 }
%struct._typeobject = type { %struct.PyVarObject, ptr, i64, i64, ptr, i64, ptr, ptr, ptr, ptr, ptr, ptr, ptr, ptr, ptr, ptr, ptr, ptr, ptr, i64, ptr, ptr, ptr, ptr, i64, ptr, ptr, ptr, ptr, ptr, ptr, ptr, ptr, ptr, i64, ptr, ptr, ptr, ptr, ptr, ptr, ptr, ptr, ptr, ptr, ptr, i32, ptr, ptr, i8, i16 }
%struct.PyVarObject = type { %struct._object, i64 }

@.str.3 = private unnamed_addr constant [21 x i8] c"_remove_dead_weakref\00", align 1
@.str.7 = private unnamed_addr constant [11 x i8] c"argument 1\00", align 1
@.str.8 = private unnamed_addr constant [5 x i8] c"dict\00", align 1
@_Py_NoneStruct = external global %struct._object, align 8

; Function Attrs: nounwind uwtable
define internal ptr @_weakref__remove_dead_weakref_impl(ptr noundef %0, ptr noundef %1, ptr noundef %2) #0 {
  %4 = alloca ptr, align 8
  %5 = alloca ptr, align 8
  %6 = alloca ptr, align 8
  %7 = alloca ptr, align 8
  store ptr %0, ptr %5, align 8, !tbaa !4
  store ptr %1, ptr %6, align 8, !tbaa !4
  store ptr %2, ptr %7, align 8, !tbaa !4
  %8 = load ptr, ptr %6, align 8, !tbaa !4
  %9 = load ptr, ptr %7, align 8, !tbaa !4
  %10 = call i32 @_PyDict_DelItemIf(ptr noundef %8, ptr noundef %9, ptr noundef @is_dead_weakref, ptr noundef null)
  %11 = icmp slt i32 %10, 0
  br i1 %11, label %12, label %13

12:                                               ; preds = %3
  store ptr null, ptr %4, align 8
  br label %14

13:                                               ; preds = %3
  store ptr @_Py_NoneStruct, ptr %4, align 8
  br label %14

14:                                               ; preds = %13, %12
  %15 = load ptr, ptr %4, align 8
  ret ptr %15
}

; Function Attrs: inlinehint nounwind uwtable
define internal i32 @PyType_HasFeature(ptr noundef %0, i64 noundef %1) #3 {
  %3 = alloca ptr, align 8
  %4 = alloca i64, align 8
  %5 = alloca i64, align 8
  store ptr %0, ptr %3, align 8, !tbaa !21
  store i64 %1, ptr %4, align 8, !tbaa !9
  call void @llvm.lifetime.start.p0(i64 8, ptr %5) #6
  %6 = load ptr, ptr %3, align 8, !tbaa !21
  %7 = getelementptr inbounds nuw %struct._typeobject, ptr %6, i32 0, i32 19
  %8 = load i64, ptr %7, align 8, !tbaa !22
  store i64 %8, ptr %5, align 8, !tbaa !9
  %9 = load i64, ptr %5, align 8, !tbaa !9
  %10 = load i64, ptr %4, align 8, !tbaa !9
  %11 = and i64 %9, %10
  %12 = icmp ne i64 %11, 0
  %13 = zext i1 %12 to i32
  call void @llvm.lifetime.end.p0(i64 8, ptr %5) #6
  ret i32 %13
}

; Function Attrs: inlinehint nounwind uwtable
define internal ptr @_Py_TYPE(ptr noundef %0) #3 {
  %2 = alloca ptr, align 8
  store ptr %0, ptr %2, align 8, !tbaa !4
  %3 = load ptr, ptr %2, align 8, !tbaa !4
  %4 = getelementptr inbounds nuw %struct._object, ptr %3, i32 0, i32 1
  %5 = load ptr, ptr %4, align 8, !tbaa !31
  ret ptr %5
}

; Function Attrs: nounwind uwtable
define internal ptr @_weakref__remove_dead_weakref(ptr noundef %0, ptr noundef %1, i64 noundef %2) #0 {
  %4 = alloca ptr, align 8
  %5 = alloca ptr, align 8
  %6 = alloca i64, align 8
  %7 = alloca ptr, align 8
  %8 = alloca ptr, align 8
  %9 = alloca ptr, align 8
  store ptr %0, ptr %4, align 8, !tbaa !4
  store ptr %1, ptr %5, align 8, !tbaa !11
  store i64 %2, ptr %6, align 8, !tbaa !9
  call void @llvm.lifetime.start.p0(i64 8, ptr %7) #6
  store ptr null, ptr %7, align 8, !tbaa !4
  call void @llvm.lifetime.start.p0(i64 8, ptr %8) #6
  call void @llvm.lifetime.start.p0(i64 8, ptr %9) #6
  %10 = load i64, ptr %6, align 8, !tbaa !9
  %11 = icmp sle i64 2, %10
  br i1 %11, label %12, label %15

12:                                               ; preds = %3
  %13 = load i64, ptr %6, align 8, !tbaa !9
  %14 = icmp sle i64 %13, 2
  br i1 %14, label %20, label %15

15:                                               ; preds = %12, %3
  %16 = load i64, ptr %6, align 8, !tbaa !9
  %17 = call i32 @_PyArg_CheckPositional(ptr noundef @.str.3, i64 noundef %16, i64 noundef 2, i64 noundef 2)
  %18 = icmp ne i32 %17, 0
  br i1 %18, label %20, label %19

19:                                               ; preds = %15
  br label %42

20:                                               ; preds = %15, %12
  %21 = load ptr, ptr %5, align 8, !tbaa !11
  %22 = getelementptr ptr, ptr %21, i64 0
  %23 = load ptr, ptr %22, align 8, !tbaa !4
  %24 = call ptr @_Py_TYPE(ptr noundef %23)
  %25 = call i32 @PyType_HasFeature(ptr noundef %24, i64 noundef 536870912)
  %26 = icmp ne i32 %25, 0
  br i1 %26, label %31, label %27

27:                                               ; preds = %20
  %28 = load ptr, ptr %5, align 8, !tbaa !11
  %29 = getelementptr ptr, ptr %28, i64 0
  %30 = load ptr, ptr %29, align 8, !tbaa !4
  call void @_PyArg_BadArgument(ptr noundef @.str.3, ptr noundef @.str.7, ptr noundef @.str.8, ptr noundef %30)
  br label %42

31:                                               ; preds = %20
  %32 = load ptr, ptr %5, align 8, !tbaa !11
  %33 = getelementptr ptr, ptr %32, i64 0
  %34 = load ptr, ptr %33, align 8, !tbaa !4
  store ptr %34, ptr %8, align 8, !tbaa !4
  %35 = load ptr, ptr %5, align 8, !tbaa !11
  %36 = getelementptr ptr, ptr %35, i64 1
  %37 = load ptr, ptr %36, align 8, !tbaa !4
  store ptr %37, ptr %9, align 8, !tbaa !4
  %38 = load ptr, ptr %4, align 8, !tbaa !4
  %39 = load ptr, ptr %8, align 8, !tbaa !4
  %40 = load ptr, ptr %9, align 8, !tbaa !4
  %41 = call ptr @_weakref__remove_dead_weakref_impl(ptr noundef %38, ptr noundef %39, ptr noundef %40)
  store ptr %41, ptr %7, align 8, !tbaa !4
  br label %42

42:                                               ; preds = %31, %27, %19
  %43 = load ptr, ptr %7, align 8, !tbaa !4
  call void @llvm.lifetime.end.p0(i64 8, ptr %9) #6
  call void @llvm.lifetime.end.p0(i64 8, ptr %8) #6
  call void @llvm.lifetime.end.p0(i64 8, ptr %7) #6
  ret ptr %43
}