; Function Attrs: nounwind uwtable
define internal ptr @_weakref__remove_dead_weakref(ptr readnone captures(none) %0, ptr noundef readonly captures(none) %1, i64 noundef %2) #0 {
  %or.cond = icmp eq i64 %2, 2
  br i1 %or.cond, label %6, label %4

4:                                                ; preds = %3
  %5 = tail call i32 @_PyArg_CheckPositional(ptr noundef nonnull @.str.3, i64 noundef %2, i64 noundef 2, i64 noundef 2) #3
  %.not = icmp eq i32 %5, 0
  br i1 %.not, label %17, label %6

6:                                                ; preds = %3, %4
  %7 = load ptr, ptr %1, align 8, !tbaa !4
  %8 = getelementptr i8, ptr %7, i64 8
  %.val = load ptr, ptr %8, align 8, !tbaa !9
  %9 = getelementptr i8, ptr %.val, i64 168
  %.val12 = load i64, ptr %9, align 8, !tbaa !12
  %10 = and i64 %.val12, 536870912
  %.not11 = icmp eq i64 %10, 0
  br i1 %.not11, label %11, label %12

11:                                               ; preds = %6
  tail call void @_PyArg_BadArgument(ptr noundef nonnull @.str.3, ptr noundef nonnull @.str.7, ptr noundef nonnull @.str.8, ptr noundef nonnull %7) #3
  br label %17

12:                                               ; preds = %6
  %13 = getelementptr i8, ptr %1, i64 8
  %14 = load ptr, ptr %13, align 8, !tbaa !4
  %15 = tail call i32 @_PyDict_DelItemIf(ptr noundef nonnull %7, ptr noundef %14, ptr noundef nonnull @is_dead_weakref, ptr noundef null) #3
  %16 = icmp slt i32 %15, 0
  %._Py_NoneStruct.i = select i1 %16, ptr null, ptr @_Py_NoneStruct
  br label %17

17:                                               ; preds = %4, %12, %11
  %.0 = phi ptr [ %._Py_NoneStruct.i, %12 ], [ null, %11 ], [ null, %4 ]
  ret ptr %.0
}